target datalayout = "e-m:e-p270:32:32-p271:32:32-p272:64:64-i64:64-i128:128-f80:128-n8:16:32:64-S128"
target triple = "x86_64-pc-linux-gnu"

%class.LogTagSet = type { ptr, i64, [5 x i32], [4 x i8], %class.LogOutputList, %class.LogDecorators, ptr }
%class.LogOutputList = type <{ [6 x ptr], i32, [4 x i8] }>
%class.LogDecorators = type { i32 }
%class.stringStream = type <{ %class.outputStream, ptr, i64, i64, i8, [48 x i8], [7 x i8] }>
%class.outputStream = type { ptr, i32, i8, i32, i64, %class.TimeStamp, ptr, i64 }
%class.TimeStamp = type { i64 }

@.str.15 = private unnamed_addr constant [2 x i8] c"r\00", align 1
@.str.37 = private unnamed_addr constant [36 x i8] c"read_string: subsystem path is null\00", align 1
@.str.38 = private unnamed_addr constant [26 x i8] c"File path too long %s, %s\00", align 1
@.str.39 = private unnamed_addr constant [17 x i8] c"Path to %s is %s\00", align 1
@.str.40 = private unnamed_addr constant [27 x i8] c"Open of file %s failed, %s\00", align 1
@.str.41 = private unnamed_addr constant [14 x i8] c"Empty file %s\00", align 1
@_ZN16LogTagSetMappingILN6LogTag4typeE105ELS1_25ELS1_0ELS1_0ELS1_0ELS1_0EE7_tagsetE = linkonce_odr hidden global %class.LogTagSet zeroinitializer, comdat, align 8

; Function Attrs: mustprogress nounwind uwtable
define linkonce_odr hidden noundef zeroext i1 @_ZNK13LogOutputList8is_levelEN8LogLevel4typeE(ptr noundef nonnull align 8 dereferenceable(52) %0, i32 noundef %1) #1 comdat align 2 {
  %3 = alloca ptr, align 8
  %4 = alloca i32, align 4
  store ptr %0, ptr %3, align 8
  store i32 %1, ptr %4, align 4
  %5 = load ptr, ptr %3, align 8
  %6 = getelementptr inbounds %class.LogOutputList, ptr %5, i32 0, i32 0
  %7 = load i32, ptr %4, align 4
  %8 = zext i32 %7 to i64
  %9 = getelementptr inbounds [6 x ptr], ptr %6, i64 0, i64 %8
  %10 = load volatile ptr, ptr %9, align 8
  %11 = icmp ne ptr %10, null
  ret i1 %11
}

; Function Attrs: mustprogress nounwind uwtable
define linkonce_odr hidden noundef zeroext i1 @_ZNK9LogTagSet8is_levelEN8LogLevel4typeE(ptr noundef nonnull align 8 dereferenceable(112) %0, i32 noundef %1) #1 comdat align 2 {
  %3 = alloca ptr, align 8
  %4 = alloca i32, align 4
  store ptr %0, ptr %3, align 8
  store i32 %1, ptr %4, align 4
  %5 = load ptr, ptr %3, align 8
  %6 = getelementptr inbounds %class.LogTagSet, ptr %5, i32 0, i32 4
  %7 = load i32, ptr %4, align 4
  %8 = call noundef zeroext i1 @_ZNK13LogOutputList8is_levelEN8LogLevel4typeE(ptr noundef nonnull align 8 dereferenceable(52) %6, i32 noundef %7)
  ret i1 %8
}

; Function Attrs: mustprogress nounwind uwtable
define linkonce_odr hidden noundef nonnull align 8 dereferenceable(112) ptr @_ZN16LogTagSetMappingILN6LogTag4typeE105ELS1_25ELS1_0ELS1_0ELS1_0ELS1_0EE6tagsetEv() #1 comdat align 2 {
  ret ptr @_ZN16LogTagSetMappingILN6LogTag4typeE105ELS1_25ELS1_0ELS1_0ELS1_0ELS1_0EE7_tagsetE
}

; Function Attrs: mustprogress nounwind uwtable
define linkonce_odr hidden noundef ptr @_ZNK12stringStream6freezeEv(ptr noundef nonnull align 8 dereferenceable(129) %0) #1 comdat align 2 {
  %2 = alloca ptr, align 8
  store ptr %0, ptr %2, align 8
  %3 = load ptr, ptr %2, align 8
  %4 = getelementptr inbounds %class.stringStream, ptr %3, i32 0, i32 1
  %5 = load ptr, ptr %4, align 8
  ret ptr %5
}

; Function Attrs: mustprogress nounwind uwtable
define linkonce_odr hidden noundef ptr @_ZNK12stringStream4baseEv(ptr noundef nonnull align 8 dereferenceable(129) %0) #1 comdat align 2 {
  %2 = alloca ptr, align 8
  store ptr %0, ptr %2, align 8
  %3 = load ptr, ptr %2, align 8
  %4 = getelementptr inbounds %class.stringStream, ptr %3, i32 0, i32 1
  %5 = load ptr, ptr %4, align 8
  ret ptr %5
}

; Function Attrs: mustprogress nounwind uwtable
define linkonce_odr hidden noundef i64 @_ZNK12stringStream4sizeEv(ptr noundef nonnull align 8 dereferenceable(129) %0) #1 comdat align 2 {
  %2 = alloca ptr, align 8
  store ptr %0, ptr %2, align 8
  %3 = load ptr, ptr %2, align 8
  %4 = getelementptr inbounds %class.stringStream, ptr %3, i32 0, i32 2
  %5 = load i64, ptr %4, align 8
  ret i64 %5
}

; Function Attrs: mustprogress nounwind uwtable
define linkonce_odr hidden void @_ZN12outputStream9print_rawEPKc(ptr noundef nonnull align 8 dereferenceable(56) %0, ptr noundef %1) #1 comdat align 2 {
  %3 = alloca ptr, align 8
  %4 = alloca ptr, align 8
  store ptr %0, ptr %3, align 8
  store ptr %1, ptr %4, align 8
  %5 = load ptr, ptr %3, align 8
  %6 = load ptr, ptr %4, align 8
  %7 = load ptr, ptr %4, align 8
  %8 = call i64 @strlen(ptr noundef %7) #9
  call void @_ZN12outputStream9print_rawEPKcm(ptr noundef nonnull align 8 dereferenceable(56) %5, ptr noundef %6, i64 noundef %8)
  ret void
}

; Function Attrs: mustprogress nounwind uwtable
define linkonce_odr hidden noundef zeroext i1 @_ZN7LogImplILN6LogTag4typeE105ELS1_25ELS1_0ELS1_0ELS1_0ELS1_0EE8is_levelEN8LogLevel4typeE(i32 noundef %0) #1 comdat align 2 {
  %2 = alloca i32, align 4
  store i32 %0, ptr %2, align 4
  %3 = call noundef nonnull align 8 dereferenceable(112) ptr @_ZN16LogTagSetMappingILN6LogTag4typeE105ELS1_25ELS1_0ELS1_0ELS1_0ELS1_0EE6tagsetEv()
  %4 = load i32, ptr %2, align 4
  %5 = call noundef zeroext i1 @_ZNK9LogTagSet8is_levelEN8LogLevel4typeE(ptr noundef nonnull align 8 dereferenceable(112) %3, i32 noundef %4)
  ret i1 %5
}

; Function Attrs: mustprogress nounwind uwtable
define hidden noundef zeroext i1 @_ZN16CgroupController11read_stringEPKcPcm(ptr noundef nonnull align 8 dereferenceable(8) %0, ptr noundef %1, ptr noundef %2, i64 noundef %3) #1 align 2 {
  %5 = alloca i1, align 1
  %6 = alloca ptr, align 8
  %7 = alloca ptr, align 8
  %8 = alloca ptr, align 8
  %9 = alloca i64, align 8
  %10 = alloca ptr, align 8
  %11 = alloca %class.stringStream, align 8
  %12 = alloca i32, align 4
  %13 = alloca ptr, align 8
  %14 = alloca ptr, align 8
  %15 = alloca ptr, align 8
  %16 = alloca i64, align 8
  store ptr %0, ptr %6, align 8
  store ptr %1, ptr %7, align 8
  store ptr %2, ptr %8, align 8
  store i64 %3, ptr %9, align 8
  %17 = load ptr, ptr %6, align 8
  %18 = load ptr, ptr %17, align 8
  %19 = getelementptr inbounds ptr, ptr %18, i64 0
  %20 = load ptr, ptr %19, align 8
  %21 = call noundef ptr %20(ptr noundef nonnull align 8 dereferenceable(8) %17)
  store ptr %21, ptr %10, align 8
  %22 = load ptr, ptr %10, align 8
  %23 = icmp eq ptr %22, null
  br i1 %23, label %24, label %29

24:                                               ; preds = %4
  %25 = call noundef zeroext i1 @_ZN7LogImplILN6LogTag4typeE105ELS1_25ELS1_0ELS1_0ELS1_0ELS1_0EE8is_levelEN8LogLevel4typeE(i32 noundef 2)
  br i1 %25, label %27, label %26

26:                                               ; preds = %24
  br label %28

27:                                               ; preds = %24
  call void (ptr, ...) @_ZN7LogImplILN6LogTag4typeE105ELS1_25ELS1_0ELS1_0ELS1_0ELS1_0EE5writeILN8LogLevel4typeE2EEEvPKcz(ptr noundef @.str.37)
  br label %28

28:                                               ; preds = %27, %26
  store i1 false, ptr %5, align 1
  br label %95

29:                                               ; preds = %4
  call void @_ZN12stringStreamC1Em(ptr noundef nonnull align 8 dereferenceable(129) %11, i64 noundef 0)
  %30 = load ptr, ptr %10, align 8
  call void @_ZN12outputStream9print_rawEPKc(ptr noundef nonnull align 8 dereferenceable(56) %11, ptr noundef %30)
  %31 = load ptr, ptr %7, align 8
  call void @_ZN12outputStream9print_rawEPKc(ptr noundef nonnull align 8 dereferenceable(56) %11, ptr noundef %31)
  %32 = call noundef i64 @_ZNK12stringStream4sizeEv(ptr noundef nonnull align 8 dereferenceable(129) %11)
  %33 = icmp ugt i64 %32, 4096
  br i1 %33, label %34, label %41

34:                                               ; preds = %29
  %35 = call noundef zeroext i1 @_ZN7LogImplILN6LogTag4typeE105ELS1_25ELS1_0ELS1_0ELS1_0ELS1_0EE8is_levelEN8LogLevel4typeE(i32 noundef 2)
  br i1 %35, label %37, label %36

36:                                               ; preds = %34
  br label %40

37:                                               ; preds = %34
  %38 = call noundef ptr @_ZNK12stringStream4baseEv(ptr noundef nonnull align 8 dereferenceable(129) %11)
  %39 = load ptr, ptr %7, align 8
  call void (ptr, ...) @_ZN7LogImplILN6LogTag4typeE105ELS1_25ELS1_0ELS1_0ELS1_0ELS1_0EE5writeILN8LogLevel4typeE2EEEvPKcz(ptr noundef @.str.38, ptr noundef %38, ptr noundef %39)
  br label %40

40:                                               ; preds = %37, %36
  store i1 false, ptr %5, align 1
  store i32 1, ptr %12, align 4
  br label %94

41:                                               ; preds = %29
  %42 = call noundef ptr @_ZNK12stringStream6freezeEv(ptr noundef nonnull align 8 dereferenceable(129) %11)
  store ptr %42, ptr %13, align 8
  %43 = call noundef zeroext i1 @_ZN7LogImplILN6LogTag4typeE105ELS1_25ELS1_0ELS1_0ELS1_0ELS1_0EE8is_levelEN8LogLevel4typeE(i32 noundef 1)
  br i1 %43, label %45, label %44

44:                                               ; preds = %41
  br label %48

45:                                               ; preds = %41
  %46 = load ptr, ptr %7, align 8
  %47 = load ptr, ptr %13, align 8
  call void (ptr, ...) @_ZN7LogImplILN6LogTag4typeE105ELS1_25ELS1_0ELS1_0ELS1_0ELS1_0EE5writeILN8LogLevel4typeE1EEEvPKcz(ptr noundef @.str.39, ptr noundef %46, ptr noundef %47)
  br label %48

48:                                               ; preds = %45, %44
  %49 = load ptr, ptr %13, align 8
  %50 = call noundef ptr @_ZN2os5fopenEPKcS1_(ptr noundef %49, ptr noundef @.str.15)
  store ptr %50, ptr %14, align 8
  %51 = load ptr, ptr %14, align 8
  %52 = icmp eq ptr %51, null
  br i1 %52, label %53, label %62

53:                                               ; preds = %48
  %54 = call noundef zeroext i1 @_ZN7LogImplILN6LogTag4typeE105ELS1_25ELS1_0ELS1_0ELS1_0ELS1_0EE8is_levelEN8LogLevel4typeE(i32 noundef 2)
  br i1 %54, label %56, label %55

55:                                               ; preds = %53
  br label %61

56:                                               ; preds = %53
  %57 = load ptr, ptr %13, align 8
  %58 = call ptr @__errno_location() #10
  %59 = load i32, ptr %58, align 4
  %60 = call noundef ptr @_ZN2os8strerrorEi(i32 noundef %59)
  call void (ptr, ...) @_ZN7LogImplILN6LogTag4typeE105ELS1_25ELS1_0ELS1_0ELS1_0ELS1_0EE5writeILN8LogLevel4typeE2EEEvPKcz(ptr noundef @.str.40, ptr noundef %57, ptr noundef %60)
  br label %61

61:                                               ; preds = %56, %55
  store i1 false, ptr %5, align 1
  store i32 1, ptr %12, align 4
  br label %94

62:                                               ; preds = %48
  %63 = load ptr, ptr %8, align 8
  %64 = load i64, ptr %9, align 8
  %65 = trunc i64 %64 to i32
  %66 = load ptr, ptr %14, align 8
  %67 = call ptr @fgets(ptr noundef %63, i32 noundef %65, ptr noundef %66)
  store ptr %67, ptr %15, align 8
  %68 = load ptr, ptr %14, align 8
  %69 = call i32 @fclose(ptr noundef %68)
  %70 = load ptr, ptr %15, align 8
  %71 = icmp eq ptr %70, null
  br i1 %71, label %72, label %78

72:                                               ; preds = %62
  %73 = call noundef zeroext i1 @_ZN7LogImplILN6LogTag4typeE105ELS1_25ELS1_0ELS1_0ELS1_0ELS1_0EE8is_levelEN8LogLevel4typeE(i32 noundef 2)
  br i1 %73, label %75, label %74

74:                                               ; preds = %72
  br label %77

75:                                               ; preds = %72
  %76 = load ptr, ptr %13, align 8
  call void (ptr, ...) @_ZN7LogImplILN6LogTag4typeE105ELS1_25ELS1_0ELS1_0ELS1_0ELS1_0EE5writeILN8LogLevel4typeE2EEEvPKcz(ptr noundef @.str.41, ptr noundef %76)
  br label %77

77:                                               ; preds = %75, %74
  store i1 false, ptr %5, align 1
  store i32 1, ptr %12, align 4
  br label %94

78:                                               ; preds = %62
  %79 = load ptr, ptr %15, align 8
  %80 = call i64 @strlen(ptr noundef %79) #9
  store i64 %80, ptr %16, align 8
  %81 = load ptr, ptr %15, align 8
  %82 = load i64, ptr %16, align 8
  %83 = sub i64 %82, 1
  %84 = getelementptr inbounds i8, ptr %81, i64 %83
  %85 = load i8, ptr %84, align 1
  %86 = sext i8 %85 to i32
  %87 = icmp eq i32 %86, 10
  br i1 %87, label %88, label %93

88:                                               ; preds = %78
  %89 = load ptr, ptr %15, align 8
  %90 = load i64, ptr %16, align 8
  %91 = sub i64 %90, 1
  %92 = getelementptr inbounds i8, ptr %89, i64 %91
  store i8 0, ptr %92, align 1
  br label %93

93:                                               ; preds = %88, %78
  store i1 true, ptr %5, align 1
  store i32 1, ptr %12, align 4
  br label %94

94:                                               ; preds = %93, %77, %61, %40
  call void @_ZN12stringStreamD1Ev(ptr noundef nonnull align 8 dereferenceable(129) %11) #8
  br label %95

95:                                               ; preds = %94, %28
  %96 = load i1, ptr %5, align 1
  ret i1 %96
}