; Function Attrs: mustprogress nounwind uwtable
define hidden noundef zeroext i1 @_ZN16CgroupController11read_stringEPKcPcm(ptr noundef nonnull align 8 dereferenceable(8) %0, ptr noundef %1, ptr noundef %2, i64 noundef %3) local_unnamed_addr #0 align 2 {
  %5 = alloca %class.stringStream, align 8
  %6 = load ptr, ptr %0, align 8
  %7 = load ptr, ptr %6, align 8
  %8 = tail call noundef ptr %7(ptr noundef nonnull align 8 dereferenceable(8) %0) #13
  %9 = icmp eq ptr %8, null
  br i1 %9, label %10, label %13

10:                                               ; preds = %4
  %11 = load volatile ptr, ptr getelementptr inbounds (i8, ptr @_ZN16LogTagSetMappingILN6LogTag4typeE105ELS1_25ELS1_0ELS1_0ELS1_0ELS1_0EE7_tagsetE, i64 56), align 8
  %.not27 = icmp eq ptr %11, null
  br i1 %.not27, label %54, label %12

12:                                               ; preds = %10
  tail call void (ptr, ...) @_ZN7LogImplILN6LogTag4typeE105ELS1_25ELS1_0ELS1_0ELS1_0ELS1_0EE5writeILN8LogLevel4typeE2EEEvPKcz(ptr noundef nonnull @.str.37)
  br label %54

13:                                               ; preds = %4
  call void @_ZN12stringStreamC1Em(ptr noundef nonnull align 8 dereferenceable(129) %5, i64 noundef 0) #13
  %14 = call i64 @strlen(ptr noundef nonnull dereferenceable(1) %8) #14
  call void @_ZN12outputStream9print_rawEPKcm(ptr noundef nonnull align 8 dereferenceable(56) %5, ptr noundef nonnull %8, i64 noundef %14) #13
  %15 = call i64 @strlen(ptr noundef nonnull dereferenceable(1) %1) #14
  call void @_ZN12outputStream9print_rawEPKcm(ptr noundef nonnull align 8 dereferenceable(56) %5, ptr noundef %1, i64 noundef %15) #13
  %16 = getelementptr inbounds i8, ptr %5, i64 64
  %17 = load i64, ptr %16, align 8
  %18 = icmp ugt i64 %17, 4096
  br i1 %18, label %19, label %24

19:                                               ; preds = %13
  %20 = load volatile ptr, ptr getelementptr inbounds (i8, ptr @_ZN16LogTagSetMappingILN6LogTag4typeE105ELS1_25ELS1_0ELS1_0ELS1_0ELS1_0EE7_tagsetE, i64 56), align 8
  %.not26 = icmp eq ptr %20, null
  br i1 %.not26, label %53, label %21

21:                                               ; preds = %19
  %22 = getelementptr inbounds i8, ptr %5, i64 56
  %23 = load ptr, ptr %22, align 8
  call void (ptr, ...) @_ZN7LogImplILN6LogTag4typeE105ELS1_25ELS1_0ELS1_0ELS1_0ELS1_0EE5writeILN8LogLevel4typeE2EEEvPKcz(ptr noundef nonnull @.str.38, ptr noundef %23, ptr noundef %1)
  br label %53

24:                                               ; preds = %13
  %25 = getelementptr inbounds i8, ptr %5, i64 56
  %26 = load ptr, ptr %25, align 8
  %27 = load volatile ptr, ptr getelementptr inbounds (i8, ptr @_ZN16LogTagSetMappingILN6LogTag4typeE105ELS1_25ELS1_0ELS1_0ELS1_0ELS1_0EE7_tagsetE, i64 48), align 8
  %.not = icmp eq ptr %27, null
  br i1 %.not, label %29, label %28

28:                                               ; preds = %24
  call void (ptr, ...) @_ZN7LogImplILN6LogTag4typeE105ELS1_25ELS1_0ELS1_0ELS1_0ELS1_0EE5writeILN8LogLevel4typeE1EEEvPKcz(ptr noundef nonnull @.str.39, ptr noundef %1, ptr noundef %26)
  br label %29

29:                                               ; preds = %24, %28
  %30 = call noundef ptr @_ZN2os5fopenEPKcS1_(ptr noundef %26, ptr noundef nonnull @.str.15) #13
  %31 = icmp eq ptr %30, null
  br i1 %31, label %32, label %38

32:                                               ; preds = %29
  %33 = load volatile ptr, ptr getelementptr inbounds (i8, ptr @_ZN16LogTagSetMappingILN6LogTag4typeE105ELS1_25ELS1_0ELS1_0ELS1_0ELS1_0EE7_tagsetE, i64 56), align 8
  %.not25 = icmp eq ptr %33, null
  br i1 %.not25, label %53, label %34

34:                                               ; preds = %32
  %35 = tail call ptr @__errno_location() #15
  %36 = load i32, ptr %35, align 4
  %37 = call noundef ptr @_ZN2os8strerrorEi(i32 noundef %36) #13
  call void (ptr, ...) @_ZN7LogImplILN6LogTag4typeE105ELS1_25ELS1_0ELS1_0ELS1_0ELS1_0EE5writeILN8LogLevel4typeE2EEEvPKcz(ptr noundef nonnull @.str.40, ptr noundef %26, ptr noundef %37)
  br label %53

38:                                               ; preds = %29
  %39 = trunc i64 %3 to i32
  %40 = call ptr @fgets(ptr noundef %2, i32 noundef %39, ptr noundef nonnull %30)
  %41 = call i32 @fclose(ptr noundef nonnull %30)
  %42 = icmp eq ptr %40, null
  br i1 %42, label %43, label %46

43:                                               ; preds = %38
  %44 = load volatile ptr, ptr getelementptr inbounds (i8, ptr @_ZN16LogTagSetMappingILN6LogTag4typeE105ELS1_25ELS1_0ELS1_0ELS1_0ELS1_0EE7_tagsetE, i64 56), align 8
  %.not24 = icmp eq ptr %44, null
  br i1 %.not24, label %53, label %45

45:                                               ; preds = %43
  call void (ptr, ...) @_ZN7LogImplILN6LogTag4typeE105ELS1_25ELS1_0ELS1_0ELS1_0ELS1_0EE5writeILN8LogLevel4typeE2EEEvPKcz(ptr noundef nonnull @.str.41, ptr noundef %26)
  br label %53

46:                                               ; preds = %38
  %47 = call i64 @strlen(ptr noundef nonnull dereferenceable(1) %40) #14
  %48 = getelementptr i8, ptr %40, i64 %47
  %49 = getelementptr i8, ptr %48, i64 -1
  %50 = load i8, ptr %49, align 1
  %51 = icmp eq i8 %50, 10
  br i1 %51, label %52, label %53

52:                                               ; preds = %46
  store i8 0, ptr %49, align 1
  br label %53

53:                                               ; preds = %46, %52, %45, %43, %34, %32, %21, %19
  %.0 = phi i1 [ false, %19 ], [ false, %21 ], [ false, %32 ], [ false, %34 ], [ false, %43 ], [ false, %45 ], [ true, %52 ], [ true, %46 ]
  call void @_ZN12stringStreamD1Ev(ptr noundef nonnull align 8 dereferenceable(129) %5) #13
  br label %54

54:                                               ; preds = %12, %10, %53
  %.1 = phi i1 [ %.0, %53 ], [ false, %10 ], [ false, %12 ]
  ret i1 %.1
}